target datalayout = "e-m:e-p270:32:32-p271:32:32-p272:64:64-i64:64-i128:128-f80:128-n8:16:32:64-S128"
target triple = "x86_64-pc-linux-gnu"

%"class.clang::SanitizerMask" = type { [2 x i64] }

@_ZN5clang13SanitizerKind7AddressE = linkonce_odr constant %"class.clang::SanitizerMask" { [2 x i64] [i64 1, i64 0] }, comdat, align 8
@_ZN5clang13SanitizerKind14PointerCompareE = linkonce_odr constant %"class.clang::SanitizerMask" { [2 x i64] [i64 2, i64 0] }, comdat, align 8
@_ZN5clang13SanitizerKind15PointerSubtractE = linkonce_odr constant %"class.clang::SanitizerMask" { [2 x i64] [i64 4, i64 0] }, comdat, align 8
@_ZN5clang13SanitizerKind4VptrE = linkonce_odr constant %"class.clang::SanitizerMask" { [2 x i64] [i64 8796093022208, i64 0] }, comdat, align 8
@_ZN5clang13SanitizerKind6ThreadE = linkonce_odr constant %"class.clang::SanitizerMask" { [2 x i64] [i64 16384, i64 0] }, comdat, align 8

; Function Attrs: mustprogress nounwind uwtable
define linkonce_odr hidden noundef nonnull align 8 dereferenceable(16) ptr @_ZN5clang13SanitizerMaskoRERKS0_(ptr noundef nonnull align 8 dereferenceable(16) %0, ptr noundef nonnull align 8 dereferenceable(16) %1) #0 comdat align 2 {
  %3 = alloca ptr, align 8
  %4 = alloca ptr, align 8
  %5 = alloca i32, align 4
  store ptr %0, ptr %3, align 8
  store ptr %1, ptr %4, align 8
  %6 = load ptr, ptr %3, align 8
  store i32 0, ptr %5, align 4
  br label %7

7:                                                ; preds = %23, %2
  %8 = load i32, ptr %5, align 4
  %9 = icmp ult i32 %8, 2
  br i1 %9, label %10, label %26

10:                                               ; preds = %7
  %11 = load ptr, ptr %4, align 8
  %12 = getelementptr inbounds nuw %"class.clang::SanitizerMask", ptr %11, i32 0, i32 0
  %13 = load i32, ptr %5, align 4
  %14 = zext i32 %13 to i64
  %15 = getelementptr inbounds [2 x i64], ptr %12, i64 0, i64 %14
  %16 = load i64, ptr %15, align 8
  %17 = getelementptr inbounds nuw %"class.clang::SanitizerMask", ptr %6, i32 0, i32 0
  %18 = load i32, ptr %5, align 4
  %19 = zext i32 %18 to i64
  %20 = getelementptr inbounds [2 x i64], ptr %17, i64 0, i64 %19
  %21 = load i64, ptr %20, align 8
  %22 = or i64 %21, %16
  store i64 %22, ptr %20, align 8
  br label %23

23:                                               ; preds = %10
  %24 = load i32, ptr %5, align 4
  %25 = add i32 %24, 1
  store i32 %25, ptr %5, align 4
  br label %7, !llvm.loop !4

26:                                               ; preds = %7
  ret ptr %6
}

; Function Attrs: mustprogress nounwind uwtable
define hidden { i64, i64 } @_ZNK5clang6driver10toolchains10PS4PS5Base22getSupportedSanitizersEv(ptr noundef nonnull align 8 dereferenceable(4520) %0) unnamed_addr #0 align 2 {
  %2 = alloca %"class.clang::SanitizerMask", align 8
  %3 = alloca ptr, align 8
  store ptr %0, ptr %3, align 8
  %4 = load ptr, ptr %3, align 8
  %5 = call { i64, i64 } @_ZNK5clang6driver9ToolChain22getSupportedSanitizersEv(ptr noundef nonnull align 8 dereferenceable(2168) %4)
  %6 = getelementptr inbounds nuw %"class.clang::SanitizerMask", ptr %2, i32 0, i32 0
  %7 = getelementptr inbounds nuw { i64, i64 }, ptr %6, i32 0, i32 0
  %8 = extractvalue { i64, i64 } %5, 0
  store i64 %8, ptr %7, align 8
  %9 = getelementptr inbounds nuw { i64, i64 }, ptr %6, i32 0, i32 1
  %10 = extractvalue { i64, i64 } %5, 1
  store i64 %10, ptr %9, align 8
  %11 = call noundef nonnull align 8 dereferenceable(16) ptr @_ZN5clang13SanitizerMaskoRERKS0_(ptr noundef nonnull align 8 dereferenceable(16) %2, ptr noundef nonnull align 8 dereferenceable(16) @_ZN5clang13SanitizerKind7AddressE)
  %12 = call noundef nonnull align 8 dereferenceable(16) ptr @_ZN5clang13SanitizerMaskoRERKS0_(ptr noundef nonnull align 8 dereferenceable(16) %2, ptr noundef nonnull align 8 dereferenceable(16) @_ZN5clang13SanitizerKind14PointerCompareE)
  %13 = call noundef nonnull align 8 dereferenceable(16) ptr @_ZN5clang13SanitizerMaskoRERKS0_(ptr noundef nonnull align 8 dereferenceable(16) %2, ptr noundef nonnull align 8 dereferenceable(16) @_ZN5clang13SanitizerKind15PointerSubtractE)
  %14 = call noundef nonnull align 8 dereferenceable(16) ptr @_ZN5clang13SanitizerMaskoRERKS0_(ptr noundef nonnull align 8 dereferenceable(16) %2, ptr noundef nonnull align 8 dereferenceable(16) @_ZN5clang13SanitizerKind4VptrE)
  %15 = getelementptr inbounds nuw %"class.clang::SanitizerMask", ptr %2, i32 0, i32 0
  %16 = load { i64, i64 }, ptr %15, align 8
  ret { i64, i64 } %16
}

; Function Attrs: mustprogress nounwind uwtable
define hidden { i64, i64 } @_ZNK5clang6driver10toolchains6PS5CPU22getSupportedSanitizersEv(ptr noundef nonnull align 8 dereferenceable(4520) %0) unnamed_addr #0 align 2 {
  %2 = alloca %"class.clang::SanitizerMask", align 8
  %3 = alloca ptr, align 8
  store ptr %0, ptr %3, align 8
  %4 = load ptr, ptr %3, align 8
  %5 = call { i64, i64 } @_ZNK5clang6driver10toolchains10PS4PS5Base22getSupportedSanitizersEv(ptr noundef nonnull align 8 dereferenceable(4520) %4)
  %6 = getelementptr inbounds nuw %"class.clang::SanitizerMask", ptr %2, i32 0, i32 0
  %7 = getelementptr inbounds nuw { i64, i64 }, ptr %6, i32 0, i32 0
  %8 = extractvalue { i64, i64 } %5, 0
  store i64 %8, ptr %7, align 8
  %9 = getelementptr inbounds nuw { i64, i64 }, ptr %6, i32 0, i32 1
  %10 = extractvalue { i64, i64 } %5, 1
  store i64 %10, ptr %9, align 8
  %11 = call noundef nonnull align 8 dereferenceable(16) ptr @_ZN5clang13SanitizerMaskoRERKS0_(ptr noundef nonnull align 8 dereferenceable(16) %2, ptr noundef nonnull align 8 dereferenceable(16) @_ZN5clang13SanitizerKind6ThreadE)
  %12 = getelementptr inbounds nuw %"class.clang::SanitizerMask", ptr %2, i32 0, i32 0
  %13 = load { i64, i64 }, ptr %12, align 8
  ret { i64, i64 } %13
}